; Function Attrs: mustprogress nofree norecurse nosync nounwind memory(read, argmem: readwrite, inaccessiblemem: none) uwtable
define noundef signext i8 @_ZNK6icu_7521TimeArrayTimeZoneRule12getNextStartEdiiaRd(ptr nocapture noundef nonnull readonly align 8 dereferenceable(352) %this, double noundef %base, i32 noundef %prevRawOffset, i32 noundef %prevDSTSavings, i8 noundef signext %inclusive, ptr nocapture noundef nonnull writeonly align 8 dereferenceable(8) %result) unnamed_addr #12 align 2 {
entry:
  %fNumStartTimes = getelementptr inbounds i8, ptr %this, i64 84
  %0 = load i32, ptr %fNumStartTimes, align 4
  %fStartTimes = getelementptr inbounds i8, ptr %this, i64 88
  %i.07 = add i32 %0, -1
  %cmp8 = icmp sgt i32 %0, 0
  br i1 %cmp8, label %for.body.lr.ph, label %for.end

for.body.lr.ph:                                   ; preds = %entry
  %fTimeRuleType.i = getelementptr inbounds i8, ptr %this, i64 80
  %conv.i = sitofp i32 %prevRawOffset to double
  %conv5.i = sitofp i32 %prevDSTSavings to double
  %tobool.not = icmp eq i8 %inclusive, 0
  %1 = load i32, ptr %fTimeRuleType.i, align 8
  %cmp.not.i38 = icmp eq i32 %1, 2
  %cmp3.i41 = icmp eq i32 %1, 0
  br i1 %tobool.not, label %for.body.preheader, label %for.body.lr.ph.split.us

for.body.preheader:                               ; preds = %for.body.lr.ph
  %2 = zext nneg i32 %i.07 to i64
  %3 = load ptr, ptr %fStartTimes, align 8
  %arrayidx37 = getelementptr inbounds double, ptr %3, i64 %2
  %4 = load double, ptr %arrayidx37, align 8
  %sub.i39 = fsub double %4, %conv.i
  %time.addr.0.i40 = select i1 %cmp.not.i38, double %4, double %sub.i39
  %sub6.i42 = fsub double %time.addr.0.i40, %conv5.i
  %time.addr.1.i43 = select i1 %cmp3.i41, double %sub6.i42, double %time.addr.0.i40
  %or.cond44 = fcmp ugt double %time.addr.1.i43, %base
  br i1 %or.cond44, label %if.end, label %for.end

for.body.lr.ph.split.us:                          ; preds = %for.body.lr.ph
  %5 = load ptr, ptr %fStartTimes, align 8
  %idxprom.us14 = zext nneg i32 %i.07 to i64
  %arrayidx.us15 = getelementptr inbounds double, ptr %5, i64 %idxprom.us14
  %6 = load double, ptr %arrayidx.us15, align 8
  %sub.i.us17 = fsub double %6, %conv.i
  %time.addr.0.i.us18 = select i1 %cmp.not.i38, double %6, double %sub.i.us17
  %sub6.i.us20 = fsub double %time.addr.0.i.us18, %conv5.i
  %time.addr.1.i.us21 = select i1 %cmp3.i41, double %sub6.i.us20, double %time.addr.0.i.us18
  %cmp2.us22 = fcmp olt double %time.addr.1.i.us21, %base
  br i1 %cmp2.us22, label %for.end, label %lor.lhs.false.us

for.body.us:                                      ; preds = %lor.lhs.false.us
  %indvars.iv.next = add nsw i64 %indvars.iv, -1
  %7 = load ptr, ptr %fStartTimes, align 8
  %arrayidx.us = getelementptr inbounds double, ptr %7, i64 %indvars.iv.next
  %8 = load double, ptr %arrayidx.us, align 8
  %9 = load i32, ptr %fTimeRuleType.i, align 8
  %cmp.not.i.us = icmp eq i32 %9, 2
  %sub.i.us = fsub double %8, %conv.i
  %time.addr.0.i.us = select i1 %cmp.not.i.us, double %8, double %sub.i.us
  %cmp3.i.us = icmp eq i32 %9, 0
  %sub6.i.us = fsub double %time.addr.0.i.us, %conv5.i
  %time.addr.1.i.us = select i1 %cmp3.i.us, double %sub6.i.us, double %time.addr.0.i.us
  %cmp2.us = fcmp olt double %time.addr.1.i.us, %base
  br i1 %cmp2.us, label %for.end.loopexit31.split.loop.exit, label %lor.lhs.false.us, !llvm.loop !8

lor.lhs.false.us:                                 ; preds = %for.body.lr.ph.split.us, %for.body.us
  %indvars.iv = phi i64 [ %indvars.iv.next, %for.body.us ], [ %idxprom.us14, %for.body.lr.ph.split.us ]
  %time.addr.1.i.us24 = phi double [ %time.addr.1.i.us, %for.body.us ], [ %time.addr.1.i.us21, %for.body.lr.ph.split.us ]
  store double %time.addr.1.i.us24, ptr %result, align 8
  %cmp.us = icmp sgt i64 %indvars.iv, 0
  br i1 %cmp.us, label %for.body.us, label %for.end, !llvm.loop !8

for.body:                                         ; preds = %if.end
  %indvars.iv.next29 = add nsw i64 %indvars.iv2845, -1
  %10 = load ptr, ptr %fStartTimes, align 8
  %arrayidx = getelementptr inbounds double, ptr %10, i64 %indvars.iv.next29
  %11 = load double, ptr %arrayidx, align 8
  %12 = load i32, ptr %fTimeRuleType.i, align 8
  %cmp.not.i = icmp eq i32 %12, 2
  %sub.i = fsub double %11, %conv.i
  %time.addr.0.i = select i1 %cmp.not.i, double %11, double %sub.i
  %cmp3.i = icmp eq i32 %12, 0
  %sub6.i = fsub double %time.addr.0.i, %conv5.i
  %time.addr.1.i = select i1 %cmp3.i, double %sub6.i, double %time.addr.0.i
  %or.cond = fcmp ugt double %time.addr.1.i, %base
  br i1 %or.cond, label %if.end, label %for.body.for.end.loopexit_crit_edge, !llvm.loop !8

if.end:                                           ; preds = %for.body.preheader, %for.body
  %time.addr.1.i46 = phi double [ %time.addr.1.i, %for.body ], [ %time.addr.1.i43, %for.body.preheader ]
  %indvars.iv2845 = phi i64 [ %indvars.iv.next29, %for.body ], [ %2, %for.body.preheader ]
  store double %time.addr.1.i46, ptr %result, align 8
  %cmp = icmp sgt i64 %indvars.iv2845, 0
  br i1 %cmp, label %for.body, label %for.end, !llvm.loop !8

for.end.loopexit31.split.loop.exit:               ; preds = %for.body.us
  %13 = trunc i64 %indvars.iv to i32
  br label %for.end

for.body.for.end.loopexit_crit_edge:              ; preds = %for.body
  %14 = trunc i64 %indvars.iv2845 to i32
  br label %for.end

for.end:                                          ; preds = %lor.lhs.false.us, %if.end, %for.body.preheader, %for.body.for.end.loopexit_crit_edge, %for.end.loopexit31.split.loop.exit, %for.body.lr.ph.split.us, %entry
  %i.0.in.lcssa = phi i32 [ %0, %entry ], [ %0, %for.body.lr.ph.split.us ], [ %13, %for.end.loopexit31.split.loop.exit ], [ %14, %for.body.for.end.loopexit_crit_edge ], [ %0, %for.body.preheader ], [ 0, %if.end ], [ 0, %lor.lhs.false.us ]
  %15 = load i32, ptr %fNumStartTimes, align 4
  %cmp6 = icmp ne i32 %i.0.in.lcssa, %15
  %. = zext i1 %cmp6 to i8
  ret i8 %.
}